target datalayout = "e-m:e-p270:32:32-p271:32:32-p272:64:64-i64:64-i128:128-f80:128-n8:16:32:64-S128"
target triple = "x86_64-pc-linux-gnu"

%struct.DdManager = type { %struct.DdNode, ptr, ptr, ptr, ptr, ptr, ptr, ptr, i32, i32, double, double, double, i32, i32, i32, i32, i32, i32, ptr, ptr, %struct.DdSubtable, i32, i32, i32, i32, i32, i32, i32, double, i32, i32, i32, ptr, i64, double, i32, ptr, ptr, ptr, ptr, ptr, ptr, ptr, i32, ptr, ptr, ptr, ptr, ptr, ptr, i32, i32, i32, double, i32, i32, i32, i32, double, double, i32, i32, i32, i32, i32, i32, i32, i32, i32, ptr, ptr, i32, i32, i32, i32, i32, i32, ptr, ptr, ptr, ptr, ptr, ptr, ptr, ptr, i32, i64, i64, i64, i32, i64, i64, double, double, double, double, double, double, i32, ptr, ptr, i64 }
%struct.DdNode = type { i32, i32, ptr, %union.anon, i64 }
%union.anon = type { %struct.DdChildren }
%struct.DdChildren = type { ptr, ptr }
%struct.DdSubtable = type { ptr, i32, i32, i32, i32, i32, i32, i32, i32, i32, i32, i32 }

@.str.27 = private unnamed_addr constant [9 x i8] c"ID = %d\0A\00", align 1
@.str.28 = private unnamed_addr constant [30 x i8] c"ID = 0x%lx\09index = %u\09r = %u\09\00", align 1
@.str.29 = private unnamed_addr constant [9 x i8] c"T = %d\09\09\00", align 1
@.str.30 = private unnamed_addr constant [11 x i8] c"T = 0x%lx\09\00", align 1
@.str.31 = private unnamed_addr constant [8 x i8] c"E = %d\0A\00", align 1
@.str.32 = private unnamed_addr constant [11 x i8] c"E = 0x%lx\0A\00", align 1

; Function Attrs: nounwind uwtable
define internal i32 @zp2(ptr noundef %0, ptr noundef %1, ptr noundef %2) #0 {
  %4 = alloca i32, align 4
  %5 = alloca ptr, align 8
  %6 = alloca ptr, align 8
  %7 = alloca ptr, align 8
  %8 = alloca ptr, align 8
  %9 = alloca i32, align 4
  %10 = alloca i32, align 4
  %11 = alloca ptr, align 8
  store ptr %0, ptr %5, align 8
  store ptr %1, ptr %6, align 8
  store ptr %2, ptr %7, align 8
  %12 = load ptr, ptr %5, align 8
  %13 = getelementptr inbounds %struct.DdManager, ptr %12, i32 0, i32 1
  %14 = load ptr, ptr %13, align 8
  store ptr %14, ptr %11, align 8
  %15 = load ptr, ptr %6, align 8
  %16 = icmp eq ptr %15, null
  br i1 %16, label %17, label %18

17:                                               ; preds = %3
  store i32 0, ptr %4, align 4
  br label %147

18:                                               ; preds = %3
  %19 = load ptr, ptr %6, align 8
  %20 = ptrtoint ptr %19 to i64
  %21 = and i64 %20, -2
  %22 = inttoptr i64 %21 to ptr
  %23 = getelementptr inbounds %struct.DdNode, ptr %22, i32 0, i32 0
  %24 = load i32, ptr %23, align 8
  %25 = icmp eq i32 %24, 2147483647
  br i1 %25, label %26, label %35

26:                                               ; preds = %18
  %27 = load ptr, ptr %5, align 8
  %28 = getelementptr inbounds %struct.DdManager, ptr %27, i32 0, i32 84
  %29 = load ptr, ptr %28, align 8
  %30 = load ptr, ptr %6, align 8
  %31 = load ptr, ptr %11, align 8
  %32 = icmp eq ptr %30, %31
  %33 = zext i1 %32 to i32
  %34 = call i32 (ptr, ptr, ...) @fprintf(ptr noundef %29, ptr noundef @.str.27, i32 noundef %33) #5
  store i32 1, ptr %4, align 4
  br label %147

35:                                               ; preds = %18
  %36 = load ptr, ptr %7, align 8
  %37 = load ptr, ptr %6, align 8
  %38 = call i32 @st__lookup(ptr noundef %36, ptr noundef %37, ptr noundef null)
  %39 = icmp eq i32 %38, 1
  br i1 %39, label %40, label %41

40:                                               ; preds = %35
  store i32 1, ptr %4, align 4
  br label %147

41:                                               ; preds = %35
  %42 = load ptr, ptr %7, align 8
  %43 = load ptr, ptr %6, align 8
  %44 = call i32 @st__insert(ptr noundef %42, ptr noundef %43, ptr noundef null)
  %45 = icmp eq i32 %44, -10000
  br i1 %45, label %46, label %47

46:                                               ; preds = %41
  store i32 0, ptr %4, align 4
  br label %147

47:                                               ; preds = %41
  %48 = load ptr, ptr %5, align 8
  %49 = getelementptr inbounds %struct.DdManager, ptr %48, i32 0, i32 84
  %50 = load ptr, ptr %49, align 8
  %51 = load ptr, ptr %6, align 8
  %52 = ptrtoint ptr %51 to i64
  %53 = udiv i64 %52, 40
  %54 = load ptr, ptr %6, align 8
  %55 = getelementptr inbounds %struct.DdNode, ptr %54, i32 0, i32 0
  %56 = load i32, ptr %55, align 8
  %57 = load ptr, ptr %6, align 8
  %58 = getelementptr inbounds %struct.DdNode, ptr %57, i32 0, i32 1
  %59 = load i32, ptr %58, align 4
  %60 = call i32 (ptr, ptr, ...) @fprintf(ptr noundef %50, ptr noundef @.str.28, i64 noundef %53, i32 noundef %56, i32 noundef %59) #5
  %61 = load ptr, ptr %6, align 8
  %62 = getelementptr inbounds %struct.DdNode, ptr %61, i32 0, i32 3
  %63 = getelementptr inbounds %struct.DdChildren, ptr %62, i32 0, i32 0
  %64 = load ptr, ptr %63, align 8
  store ptr %64, ptr %8, align 8
  %65 = load ptr, ptr %8, align 8
  %66 = ptrtoint ptr %65 to i64
  %67 = and i64 %66, -2
  %68 = inttoptr i64 %67 to ptr
  %69 = getelementptr inbounds %struct.DdNode, ptr %68, i32 0, i32 0
  %70 = load i32, ptr %69, align 8
  %71 = icmp eq i32 %70, 2147483647
  br i1 %71, label %72, label %81

72:                                               ; preds = %47
  %73 = load ptr, ptr %5, align 8
  %74 = getelementptr inbounds %struct.DdManager, ptr %73, i32 0, i32 84
  %75 = load ptr, ptr %74, align 8
  %76 = load ptr, ptr %8, align 8
  %77 = load ptr, ptr %11, align 8
  %78 = icmp eq ptr %76, %77
  %79 = zext i1 %78 to i32
  %80 = call i32 (ptr, ptr, ...) @fprintf(ptr noundef %75, ptr noundef @.str.29, i32 noundef %79) #5
  store i32 1, ptr %9, align 4
  br label %89

81:                                               ; preds = %47
  %82 = load ptr, ptr %5, align 8
  %83 = getelementptr inbounds %struct.DdManager, ptr %82, i32 0, i32 84
  %84 = load ptr, ptr %83, align 8
  %85 = load ptr, ptr %8, align 8
  %86 = ptrtoint ptr %85 to i64
  %87 = udiv i64 %86, 40
  %88 = call i32 (ptr, ptr, ...) @fprintf(ptr noundef %84, ptr noundef @.str.30, i64 noundef %87) #5
  store i32 0, ptr %9, align 4
  br label %89

89:                                               ; preds = %81, %72
  %90 = load ptr, ptr %6, align 8
  %91 = getelementptr inbounds %struct.DdNode, ptr %90, i32 0, i32 3
  %92 = getelementptr inbounds %struct.DdChildren, ptr %91, i32 0, i32 1
  %93 = load ptr, ptr %92, align 8
  store ptr %93, ptr %8, align 8
  %94 = load ptr, ptr %8, align 8
  %95 = ptrtoint ptr %94 to i64
  %96 = and i64 %95, -2
  %97 = inttoptr i64 %96 to ptr
  %98 = getelementptr inbounds %struct.DdNode, ptr %97, i32 0, i32 0
  %99 = load i32, ptr %98, align 8
  %100 = icmp eq i32 %99, 2147483647
  br i1 %100, label %101, label %110

101:                                              ; preds = %89
  %102 = load ptr, ptr %5, align 8
  %103 = getelementptr inbounds %struct.DdManager, ptr %102, i32 0, i32 84
  %104 = load ptr, ptr %103, align 8
  %105 = load ptr, ptr %8, align 8
  %106 = load ptr, ptr %11, align 8
  %107 = icmp eq ptr %105, %106
  %108 = zext i1 %107 to i32
  %109 = call i32 (ptr, ptr, ...) @fprintf(ptr noundef %104, ptr noundef @.str.31, i32 noundef %108) #5
  store i32 1, ptr %10, align 4
  br label %118

110:                                              ; preds = %89
  %111 = load ptr, ptr %5, align 8
  %112 = getelementptr inbounds %struct.DdManager, ptr %111, i32 0, i32 84
  %113 = load ptr, ptr %112, align 8
  %114 = load ptr, ptr %8, align 8
  %115 = ptrtoint ptr %114 to i64
  %116 = udiv i64 %115, 40
  %117 = call i32 (ptr, ptr, ...) @fprintf(ptr noundef %113, ptr noundef @.str.32, i64 noundef %116) #5
  store i32 0, ptr %10, align 4
  br label %118

118:                                              ; preds = %110, %101
  %119 = load i32, ptr %10, align 4
  %120 = icmp eq i32 %119, 0
  br i1 %120, label %121, label %132

121:                                              ; preds = %118
  %122 = load ptr, ptr %5, align 8
  %123 = load ptr, ptr %6, align 8
  %124 = getelementptr inbounds %struct.DdNode, ptr %123, i32 0, i32 3
  %125 = getelementptr inbounds %struct.DdChildren, ptr %124, i32 0, i32 1
  %126 = load ptr, ptr %125, align 8
  %127 = load ptr, ptr %7, align 8
  %128 = call i32 @zp2(ptr noundef %122, ptr noundef %126, ptr noundef %127)
  %129 = icmp eq i32 %128, 0
  br i1 %129, label %130, label %131

130:                                              ; preds = %121
  store i32 0, ptr %4, align 4
  br label %147

131:                                              ; preds = %121
  br label %132

132:                                              ; preds = %131, %118
  %133 = load i32, ptr %9, align 4
  %134 = icmp eq i32 %133, 0
  br i1 %134, label %135, label %146

135:                                              ; preds = %132
  %136 = load ptr, ptr %5, align 8
  %137 = load ptr, ptr %6, align 8
  %138 = getelementptr inbounds %struct.DdNode, ptr %137, i32 0, i32 3
  %139 = getelementptr inbounds %struct.DdChildren, ptr %138, i32 0, i32 0
  %140 = load ptr, ptr %139, align 8
  %141 = load ptr, ptr %7, align 8
  %142 = call i32 @zp2(ptr noundef %136, ptr noundef %140, ptr noundef %141)
  %143 = icmp eq i32 %142, 0
  br i1 %143, label %144, label %145

144:                                              ; preds = %135
  store i32 0, ptr %4, align 4
  br label %147

145:                                              ; preds = %135
  br label %146

146:                                              ; preds = %145, %132
  store i32 1, ptr %4, align 4
  br label %147

147:                                              ; preds = %146, %144, %130, %46, %40, %26, %17
  %148 = load i32, ptr %4, align 4
  ret i32 %148
}