; Function Attrs: nounwind uwtable
define internal fastcc range(i32 0, 2) i32 @zp2(ptr noundef %0, ptr noundef %1, ptr noundef nonnull %2) unnamed_addr #0 {
  %4 = getelementptr inbounds nuw i8, ptr %0, i64 40
  %5 = load ptr, ptr %4, align 8
  %6 = icmp eq ptr %1, null
  br i1 %6, label %70, label %7

7:                                                ; preds = %3
  %8 = ptrtoint ptr %1 to i64
  %9 = and i64 %8, -2
  %10 = inttoptr i64 %9 to ptr
  %11 = load i32, ptr %10, align 8
  %12 = icmp eq i32 %11, 2147483647
  br i1 %12, label %13, label %19

13:                                               ; preds = %7
  %14 = getelementptr inbounds nuw i8, ptr %0, i64 608
  %15 = load ptr, ptr %14, align 8
  %16 = icmp eq ptr %1, %5
  %17 = zext i1 %16 to i32
  %18 = tail call i32 (ptr, ptr, ...) @fprintf(ptr noundef %15, ptr noundef nonnull @.str.27, i32 noundef %17) #11
  br label %70

19:                                               ; preds = %7
  %20 = tail call i32 @st__lookup(ptr noundef nonnull %2, ptr noundef nonnull %1, ptr noundef null) #11
  %21 = icmp eq i32 %20, 1
  br i1 %21, label %70, label %22

22:                                               ; preds = %19
  %23 = tail call i32 @st__insert(ptr noundef nonnull %2, ptr noundef nonnull %1, ptr noundef null) #11
  %24 = icmp eq i32 %23, -10000
  br i1 %24, label %70, label %25

25:                                               ; preds = %22
  %26 = getelementptr inbounds nuw i8, ptr %0, i64 608
  %27 = load ptr, ptr %26, align 8
  %28 = udiv i64 %8, 40
  %29 = load i32, ptr %1, align 8
  %30 = getelementptr inbounds nuw i8, ptr %1, i64 4
  %31 = load i32, ptr %30, align 4
  %32 = tail call i32 (ptr, ptr, ...) @fprintf(ptr noundef %27, ptr noundef nonnull @.str.28, i64 noundef %28, i32 noundef %29, i32 noundef %31) #11
  %33 = getelementptr inbounds nuw i8, ptr %1, i64 16
  %34 = load ptr, ptr %33, align 8
  %35 = ptrtoint ptr %34 to i64
  %36 = and i64 %35, -2
  %37 = inttoptr i64 %36 to ptr
  %38 = load i32, ptr %37, align 8
  %.not39 = icmp eq i32 %38, 2147483647
  %39 = load ptr, ptr %26, align 8
  br i1 %.not39, label %40, label %44

40:                                               ; preds = %25
  %41 = icmp eq ptr %34, %5
  %42 = zext i1 %41 to i32
  %43 = tail call i32 (ptr, ptr, ...) @fprintf(ptr noundef %39, ptr noundef nonnull @.str.29, i32 noundef %42) #11
  br label %47

44:                                               ; preds = %25
  %45 = udiv i64 %35, 40
  %46 = tail call i32 (ptr, ptr, ...) @fprintf(ptr noundef %39, ptr noundef nonnull @.str.30, i64 noundef %45) #11
  br label %47

47:                                               ; preds = %44, %40
  %48 = getelementptr inbounds nuw i8, ptr %1, i64 24
  %49 = load ptr, ptr %48, align 8
  %50 = ptrtoint ptr %49 to i64
  %51 = and i64 %50, -2
  %52 = inttoptr i64 %51 to ptr
  %53 = load i32, ptr %52, align 8
  %.not = icmp eq i32 %53, 2147483647
  %54 = load ptr, ptr %26, align 8
  br i1 %.not, label %.thread, label %58

.thread:                                          ; preds = %47
  %55 = icmp eq ptr %49, %5
  %56 = zext i1 %55 to i32
  %57 = tail call i32 (ptr, ptr, ...) @fprintf(ptr noundef %54, ptr noundef nonnull @.str.31, i32 noundef %56) #11
  br label %64

58:                                               ; preds = %47
  %59 = udiv i64 %50, 40
  %60 = tail call i32 (ptr, ptr, ...) @fprintf(ptr noundef %54, ptr noundef nonnull @.str.32, i64 noundef %59) #11
  %61 = load ptr, ptr %48, align 8
  %62 = tail call fastcc i32 @zp2(ptr noundef nonnull %0, ptr noundef %61, ptr noundef %2)
  %63 = icmp eq i32 %62, 0
  br i1 %63, label %70, label %64

64:                                               ; preds = %.thread, %58
  br i1 %.not39, label %69, label %65

65:                                               ; preds = %64
  %66 = load ptr, ptr %33, align 8
  %67 = tail call fastcc i32 @zp2(ptr noundef nonnull %0, ptr noundef %66, ptr noundef %2)
  %68 = icmp eq i32 %67, 0
  br i1 %68, label %70, label %69

69:                                               ; preds = %65, %64
  br label %70

70:                                               ; preds = %65, %58, %22, %19, %3, %69, %13
  %.0 = phi i32 [ 1, %13 ], [ 1, %69 ], [ 0, %3 ], [ 1, %19 ], [ 0, %22 ], [ 0, %58 ], [ 0, %65 ]
  ret i32 %.0
}